; Function Attrs: nounwind uwtable
define i32 @Kit_TruthSemiCanonicize_new_internal(ptr noundef %0, i32 noundef %1, ptr noundef %2) local_unnamed_addr #0 {
  %4 = alloca [1024 x i64], align 16
  %5 = alloca [1024 x i64], align 16
  %6 = alloca [16 x i8], align 16
  %7 = alloca i32, align 4
  call void @llvm.lifetime.start.p0(i64 8192, ptr nonnull %4) #19
  call void @llvm.lifetime.start.p0(i64 8192, ptr nonnull %5) #19
  call void @llvm.lifetime.start.p0(i64 16, ptr nonnull %6) #19
  call void @llvm.lifetime.start.p0(i64 4, ptr nonnull %7) #19
  %8 = tail call i32 @Kit_TruthSemiCanonicize_Yasha(ptr noundef %0, i32 noundef %1, ptr noundef %2) #19
  store i32 %8, ptr %7, align 4, !tbaa !29
  %invariant.gep.i = getelementptr i8, ptr %0, i64 -8
  %9 = shl nuw i32 1, %1
  br label %10

10:                                               ; preds = %minimalInitialFlip.exit.i, %3
  %11 = tail call i32 @Kit_TruthWordNum_64bit(i32 noundef %1) #19
  %12 = sext i32 %11 to i64
  %gep.i = getelementptr i64, ptr %invariant.gep.i, i64 %12
  %13 = load i64, ptr %gep.i, align 8, !tbaa !3
  %.not.i.i = icmp sgt i64 %13, -1
  br i1 %.not.i.i, label %minimalInitialFlip.exit.i, label %14

14:                                               ; preds = %10
  tail call void @Kit_TruthNot_64bit(ptr noundef nonnull %0, i32 noundef %1) #19
  %15 = load i32, ptr %7, align 4, !tbaa !29
  %16 = xor i32 %15, %9
  store i32 %16, ptr %7, align 4, !tbaa !29
  br label %minimalInitialFlip.exit.i

minimalInitialFlip.exit.i:                        ; preds = %14, %10
  %.0.i.i = phi i32 [ 1, %14 ], [ 0, %10 ]
  %17 = call i32 @minimalFlip(ptr noundef nonnull %0, ptr noundef nonnull %4, ptr noundef nonnull %5, i32 noundef %1, ptr noundef nonnull %7)
  %18 = add nuw nsw i32 %17, %.0.i.i
  %19 = call i32 @minimalSwap(ptr noundef nonnull %0, ptr noundef nonnull %4, ptr noundef nonnull %5, i32 noundef %1, ptr noundef %2, ptr noundef nonnull %6, ptr noundef nonnull %7)
  %20 = or i32 %18, %19
  %.not.i = icmp eq i32 %20, 0
  br i1 %.not.i, label %luckyCanonicizer.exit, label %10, !llvm.loop !33

luckyCanonicizer.exit:                            ; preds = %minimalInitialFlip.exit.i
  %21 = load i32, ptr %7, align 4, !tbaa !29
  call void @llvm.lifetime.end.p0(i64 4, ptr nonnull %7) #19
  call void @llvm.lifetime.end.p0(i64 16, ptr nonnull %6) #19
  call void @llvm.lifetime.end.p0(i64 8192, ptr nonnull %5) #19
  call void @llvm.lifetime.end.p0(i64 8192, ptr nonnull %4) #19
  ret i32 %21
}